; Function Attrs: mustprogress nounwind uwtable
define internal fastcc noundef ptr @_ZN4llvm15SmallVectorImplIN12_GLOBAL__N_116AttributeInferer19InferenceDescriptorEE5eraseEPKS3_S6_(ptr noundef nonnull align 8 dereferenceable(16) %0, ptr noundef returned %1, ptr noundef %2) unnamed_addr #0 align 2 {
  %.val.i = load ptr, ptr %0, align 8
  %4 = tail call noundef i64 @_ZNK4llvm15SmallVectorBaseIjE4sizeEv(ptr noundef nonnull align 8 dereferenceable(16) %0) #19
  %5 = getelementptr inbounds %"struct.(anonymous namespace)::AttributeInferer::InferenceDescriptor", ptr %.val.i, i64 %4
  %6 = ptrtoint ptr %5 to i64
  %7 = ptrtoint ptr %2 to i64
  %8 = sub i64 %6, %7
  %9 = icmp sgt i64 %8, 0
  br i1 %9, label %.lr.ph.preheader.i.i.i.i.i, label %_ZSt4moveIPN12_GLOBAL__N_116AttributeInferer19InferenceDescriptorES3_ET0_T_S5_S4_.exit

.lr.ph.preheader.i.i.i.i.i:                       ; preds = %3
  %10 = udiv exact i64 %8, 104
  br label %.lr.ph.i.i.i.i.i

.lr.ph.i.i.i.i.i:                                 ; preds = %.lr.ph.i.i.i.i.i, %.lr.ph.preheader.i.i.i.i.i
  %.012.i.i.i.i.i = phi i64 [ %14, %.lr.ph.i.i.i.i.i ], [ %10, %.lr.ph.preheader.i.i.i.i.i ]
  %.0811.i.i.i.i.i = phi ptr [ %13, %.lr.ph.i.i.i.i.i ], [ %1, %.lr.ph.preheader.i.i.i.i.i ]
  %.0910.i.i.i.i.i = phi ptr [ %12, %.lr.ph.i.i.i.i.i ], [ %2, %.lr.ph.preheader.i.i.i.i.i ]
  %11 = tail call fastcc noundef nonnull align 8 dereferenceable(101) ptr @_ZN12_GLOBAL__N_116AttributeInferer19InferenceDescriptoraSEOS1_(ptr noundef nonnull align 8 dereferenceable(101) %.0811.i.i.i.i.i, ptr noundef nonnull align 8 dereferenceable(101) %.0910.i.i.i.i.i) #19
  %12 = getelementptr inbounds i8, ptr %.0910.i.i.i.i.i, i64 104
  %13 = getelementptr inbounds i8, ptr %.0811.i.i.i.i.i, i64 104
  %14 = add nsw i64 %.012.i.i.i.i.i, -1
  %15 = icmp ugt i64 %.012.i.i.i.i.i, 1
  br i1 %15, label %.lr.ph.i.i.i.i.i, label %_ZSt4moveIPN12_GLOBAL__N_116AttributeInferer19InferenceDescriptorES3_ET0_T_S5_S4_.exit, !llvm.loop !316

_ZSt4moveIPN12_GLOBAL__N_116AttributeInferer19InferenceDescriptorES3_ET0_T_S5_S4_.exit: ; preds = %.lr.ph.i.i.i.i.i, %3
  %.08.lcssa.i.i.i.i.i = phi ptr [ %1, %3 ], [ %13, %.lr.ph.i.i.i.i.i ]
  %.val.i9 = load ptr, ptr %0, align 8
  %16 = tail call noundef i64 @_ZNK4llvm15SmallVectorBaseIjE4sizeEv(ptr noundef nonnull align 8 dereferenceable(16) %0) #19
  %17 = getelementptr inbounds %"struct.(anonymous namespace)::AttributeInferer::InferenceDescriptor", ptr %.val.i9, i64 %16
  %.not4.i = icmp eq ptr %.08.lcssa.i.i.i.i.i, %17
  br i1 %.not4.i, label %_ZN4llvm23SmallVectorTemplateBaseIN12_GLOBAL__N_116AttributeInferer19InferenceDescriptorELb0EE13destroy_rangeEPS3_S5_.exit, label %.lr.ph.i

.lr.ph.i:                                         ; preds = %_ZSt4moveIPN12_GLOBAL__N_116AttributeInferer19InferenceDescriptorES3_ET0_T_S5_S4_.exit, %_ZN12_GLOBAL__N_116AttributeInferer19InferenceDescriptorD2Ev.exit.i
  %.05.i = phi ptr [ %18, %_ZN12_GLOBAL__N_116AttributeInferer19InferenceDescriptorD2Ev.exit.i ], [ %17, %_ZSt4moveIPN12_GLOBAL__N_116AttributeInferer19InferenceDescriptorES3_ET0_T_S5_S4_.exit ]
  %18 = getelementptr inbounds i8, ptr %.05.i, i64 -104
  %19 = getelementptr inbounds i8, ptr %.05.i, i64 -24
  %20 = load ptr, ptr %19, align 8
  %.not.i.i.i.i = icmp eq ptr %20, null
  br i1 %.not.i.i.i.i, label %_ZNSt8functionIFvRN4llvm8FunctionEEED2Ev.exit.i.i, label %21

21:                                               ; preds = %.lr.ph.i
  %22 = getelementptr inbounds i8, ptr %.05.i, i64 -40
  %23 = tail call noundef zeroext i1 %20(ptr noundef nonnull align 8 dereferenceable(16) %22, ptr noundef nonnull align 8 dereferenceable(16) %22, i32 noundef 3) #19
  br label %_ZNSt8functionIFvRN4llvm8FunctionEEED2Ev.exit.i.i

_ZNSt8functionIFvRN4llvm8FunctionEEED2Ev.exit.i.i: ; preds = %21, %.lr.ph.i
  %24 = getelementptr inbounds i8, ptr %.05.i, i64 -56
  %25 = load ptr, ptr %24, align 8
  %.not.i.i1.i.i = icmp eq ptr %25, null
  br i1 %.not.i.i1.i.i, label %_ZNSt8functionIFbRN4llvm11InstructionEEED2Ev.exit.i.i, label %26

26:                                               ; preds = %_ZNSt8functionIFvRN4llvm8FunctionEEED2Ev.exit.i.i
  %27 = getelementptr inbounds i8, ptr %.05.i, i64 -72
  %28 = tail call noundef zeroext i1 %25(ptr noundef nonnull align 8 dereferenceable(16) %27, ptr noundef nonnull align 8 dereferenceable(16) %27, i32 noundef 3) #19
  br label %_ZNSt8functionIFbRN4llvm11InstructionEEED2Ev.exit.i.i

_ZNSt8functionIFbRN4llvm11InstructionEEED2Ev.exit.i.i: ; preds = %26, %_ZNSt8functionIFvRN4llvm8FunctionEEED2Ev.exit.i.i
  %29 = getelementptr inbounds i8, ptr %.05.i, i64 -88
  %30 = load ptr, ptr %29, align 8
  %.not.i.i2.i.i = icmp eq ptr %30, null
  br i1 %.not.i.i2.i.i, label %_ZN12_GLOBAL__N_116AttributeInferer19InferenceDescriptorD2Ev.exit.i, label %31

31:                                               ; preds = %_ZNSt8functionIFbRN4llvm11InstructionEEED2Ev.exit.i.i
  %32 = tail call noundef zeroext i1 %30(ptr noundef nonnull align 8 dereferenceable(16) %18, ptr noundef nonnull align 8 dereferenceable(16) %18, i32 noundef 3) #19
  br label %_ZN12_GLOBAL__N_116AttributeInferer19InferenceDescriptorD2Ev.exit.i

_ZN12_GLOBAL__N_116AttributeInferer19InferenceDescriptorD2Ev.exit.i: ; preds = %31, %_ZNSt8functionIFbRN4llvm11InstructionEEED2Ev.exit.i.i
  %.not.i = icmp eq ptr %.08.lcssa.i.i.i.i.i, %18
  br i1 %.not.i, label %_ZN4llvm23SmallVectorTemplateBaseIN12_GLOBAL__N_116AttributeInferer19InferenceDescriptorELb0EE13destroy_rangeEPS3_S5_.exit, label %.lr.ph.i, !llvm.loop !45

_ZN4llvm23SmallVectorTemplateBaseIN12_GLOBAL__N_116AttributeInferer19InferenceDescriptorELb0EE13destroy_rangeEPS3_S5_.exit: ; preds = %_ZN12_GLOBAL__N_116AttributeInferer19InferenceDescriptorD2Ev.exit.i, %_ZSt4moveIPN12_GLOBAL__N_116AttributeInferer19InferenceDescriptorES3_ET0_T_S5_S4_.exit
  %.val = load ptr, ptr %0, align 8
  %33 = ptrtoint ptr %.08.lcssa.i.i.i.i.i to i64
  %34 = ptrtoint ptr %.val to i64
  %35 = sub i64 %33, %34
  %36 = sdiv exact i64 %35, 104
  tail call void @_ZN4llvm15SmallVectorBaseIjE8set_sizeEm(ptr noundef nonnull align 8 dereferenceable(16) %0, i64 noundef %36) #19
  ret ptr %1
}